target datalayout = "e-m:e-p270:32:32-p271:32:32-p272:64:64-i64:64-i128:128-f80:128-n8:16:32:64-S128"
target triple = "x86_64-pc-linux-gnu"

@hf_smpp_source_addr = internal global i32 0, align 4
@hf_smpp_destination_addr = internal global i32 0, align 4
@hf_smpp_error_code = internal global i32 0, align 4
@hf_huawei_smpp_smsc_addr = internal global i32 0, align 4
@hf_huawei_smpp_msc_addr_noa = internal global i32 0, align 4
@hf_huawei_smpp_msc_addr_npi = internal global i32 0, align 4
@hf_huawei_smpp_msc_addr = internal global i32 0, align 4
@hf_huawei_smpp_mo_mt_flag = internal global i32 0, align 4
@hf_huawei_smpp_sm_id = internal global i32 0, align 4
@hf_huawei_smpp_length_auth = internal global i32 0, align 4
@hf_huawei_smpp_service_id = internal global i32 0, align 4
@hf_huawei_smpp_delivery_result = internal global i32 0, align 4

; Function Attrs: null_pointer_is_valid sspstrong uwtable
define internal void @smpp_handle_string(ptr noundef %0, ptr noundef %1, i32 noundef %2, ptr noundef %3) #0 {
  %5 = alloca ptr, align 8
  %6 = alloca ptr, align 8
  %7 = alloca i32, align 4
  %8 = alloca ptr, align 8
  %9 = alloca i32, align 4
  store ptr %0, ptr %5, align 8
  store ptr %1, ptr %6, align 8
  store i32 %2, ptr %7, align 4
  store ptr %3, ptr %8, align 8
  call void @llvm.lifetime.start.p0(i64 4, ptr %9) #10
  %10 = load ptr, ptr %6, align 8
  %11 = load ptr, ptr %8, align 8
  %12 = load i32, ptr %11, align 4
  %13 = call i32 @tvb_strsize(ptr noundef %10, i32 noundef %12)
  store i32 %13, ptr %9, align 4
  %14 = load i32, ptr %9, align 4
  %15 = icmp ugt i32 %14, 1
  br i1 %15, label %16, label %24

16:                                               ; preds = %4
  %17 = load ptr, ptr %5, align 8
  %18 = load i32, ptr %7, align 4
  %19 = load ptr, ptr %6, align 8
  %20 = load ptr, ptr %8, align 8
  %21 = load i32, ptr %20, align 4
  %22 = load i32, ptr %9, align 4
  %23 = call ptr @proto_tree_add_item(ptr noundef %17, i32 noundef %18, ptr noundef %19, i32 noundef %21, i32 noundef %22, i32 noundef 0)
  br label %24

24:                                               ; preds = %16, %4
  %25 = load i32, ptr %9, align 4
  %26 = load ptr, ptr %8, align 8
  %27 = load i32, ptr %26, align 4
  %28 = add i32 %27, %25
  store i32 %28, ptr %26, align 4
  call void @llvm.lifetime.end.p0(i64 4, ptr %9) #10
  ret void
}

; Function Attrs: null_pointer_is_valid sspstrong uwtable
define internal void @huawei_sm_result_notify(ptr noundef %0, ptr noundef %1, i32 noundef %2) #0 {
  %4 = alloca ptr, align 8
  %5 = alloca ptr, align 8
  %6 = alloca i32, align 4
  %7 = alloca i32, align 4
  store ptr %0, ptr %4, align 8
  store ptr %1, ptr %5, align 8
  store i32 %2, ptr %6, align 4
  call void @llvm.lifetime.start.p0(i64 4, ptr %7) #10
  %8 = load ptr, ptr %4, align 8
  %9 = load i32, ptr @hf_smpp_error_code, align 4
  %10 = load ptr, ptr %5, align 8
  %11 = load i32, ptr %6, align 4
  %12 = call ptr @proto_tree_add_item_ret_uint(ptr noundef %8, i32 noundef %9, ptr noundef %10, i32 noundef %11, i32 noundef 1, i32 noundef 0, ptr noundef %7)
  %13 = load i32, ptr %6, align 4
  %14 = add i32 %13, 1
  store i32 %14, ptr %6, align 4
  %15 = load ptr, ptr %4, align 8
  %16 = load ptr, ptr %5, align 8
  %17 = load i32, ptr @hf_huawei_smpp_smsc_addr, align 4
  call void @smpp_handle_string(ptr noundef %15, ptr noundef %16, i32 noundef %17, ptr noundef %6)
  %18 = load i32, ptr %7, align 4
  %19 = icmp eq i32 %18, 51
  br i1 %19, label %20, label %38

20:                                               ; preds = %3
  %21 = load ptr, ptr %4, align 8
  %22 = load i32, ptr @hf_huawei_smpp_msc_addr_noa, align 4
  %23 = load ptr, ptr %5, align 8
  %24 = load i32, ptr %6, align 4
  %25 = call ptr @proto_tree_add_item(ptr noundef %21, i32 noundef %22, ptr noundef %23, i32 noundef %24, i32 noundef 1, i32 noundef 0)
  %26 = load i32, ptr %6, align 4
  %27 = add i32 %26, 1
  store i32 %27, ptr %6, align 4
  %28 = load ptr, ptr %4, align 8
  %29 = load i32, ptr @hf_huawei_smpp_msc_addr_npi, align 4
  %30 = load ptr, ptr %5, align 8
  %31 = load i32, ptr %6, align 4
  %32 = call ptr @proto_tree_add_item(ptr noundef %28, i32 noundef %29, ptr noundef %30, i32 noundef %31, i32 noundef 1, i32 noundef 0)
  %33 = load i32, ptr %6, align 4
  %34 = add i32 %33, 1
  store i32 %34, ptr %6, align 4
  %35 = load ptr, ptr %4, align 8
  %36 = load ptr, ptr %5, align 8
  %37 = load i32, ptr @hf_huawei_smpp_msc_addr, align 4
  call void @smpp_handle_string(ptr noundef %35, ptr noundef %36, i32 noundef %37, ptr noundef %6)
  br label %38

38:                                               ; preds = %20, %3
  %39 = load ptr, ptr %4, align 8
  %40 = load ptr, ptr %5, align 8
  %41 = load i32, ptr @hf_smpp_source_addr, align 4
  call void @smpp_handle_string(ptr noundef %39, ptr noundef %40, i32 noundef %41, ptr noundef %6)
  %42 = load ptr, ptr %4, align 8
  %43 = load ptr, ptr %5, align 8
  %44 = load i32, ptr @hf_smpp_destination_addr, align 4
  call void @smpp_handle_string(ptr noundef %42, ptr noundef %43, i32 noundef %44, ptr noundef %6)
  %45 = load ptr, ptr %4, align 8
  %46 = load i32, ptr @hf_huawei_smpp_mo_mt_flag, align 4
  %47 = load ptr, ptr %5, align 8
  %48 = load i32, ptr %6, align 4
  %49 = call ptr @proto_tree_add_item(ptr noundef %45, i32 noundef %46, ptr noundef %47, i32 noundef %48, i32 noundef 1, i32 noundef 0)
  %50 = load i32, ptr %6, align 4
  %51 = add i32 %50, 1
  store i32 %51, ptr %6, align 4
  %52 = load ptr, ptr %4, align 8
  %53 = load ptr, ptr %5, align 8
  %54 = load i32, ptr @hf_huawei_smpp_sm_id, align 4
  call void @smpp_handle_string(ptr noundef %52, ptr noundef %53, i32 noundef %54, ptr noundef %6)
  %55 = load ptr, ptr %4, align 8
  %56 = load i32, ptr @hf_huawei_smpp_length_auth, align 4
  %57 = load ptr, ptr %5, align 8
  %58 = load i32, ptr %6, align 4
  %59 = call ptr @proto_tree_add_item(ptr noundef %55, i32 noundef %56, ptr noundef %57, i32 noundef %58, i32 noundef 4, i32 noundef 0)
  %60 = load i32, ptr %6, align 4
  %61 = add i32 %60, 4
  store i32 %61, ptr %6, align 4
  %62 = load ptr, ptr %4, align 8
  %63 = load i32, ptr @hf_huawei_smpp_delivery_result, align 4
  %64 = load ptr, ptr %5, align 8
  %65 = load i32, ptr %6, align 4
  %66 = call ptr @proto_tree_add_item(ptr noundef %62, i32 noundef %63, ptr noundef %64, i32 noundef %65, i32 noundef 4, i32 noundef 0)
  %67 = load i32, ptr %6, align 4
  %68 = add i32 %67, 4
  store i32 %68, ptr %6, align 4
  %69 = load ptr, ptr %4, align 8
  %70 = load i32, ptr @hf_huawei_smpp_service_id, align 4
  %71 = load ptr, ptr %5, align 8
  %72 = load i32, ptr %6, align 4
  %73 = call ptr @proto_tree_add_item(ptr noundef %69, i32 noundef %70, ptr noundef %71, i32 noundef %72, i32 noundef 4, i32 noundef 0)
  call void @llvm.lifetime.end.p0(i64 4, ptr %7) #10
  ret void
}